target datalayout = "e-m:e-p270:32:32-p271:32:32-p272:64:64-i64:64-i128:128-f80:128-n8:16:32:64-S128"
target triple = "x86_64-pc-linux-gnu"

; Function Attrs: mustprogress nounwind uwtable
define internal void @_ZN2cv4gapi12_GLOBAL__N_122fillBorderReplicateRowIsEEvPhiii(ptr noundef %0, i32 noundef %1, i32 noundef %2, i32 noundef %3) #8 {
  %5 = alloca ptr, align 8
  %6 = alloca i32, align 4
  %7 = alloca i32, align 4
  %8 = alloca i32, align 4
  %9 = alloca ptr, align 8
  %10 = alloca ptr, align 8
  %11 = alloca i32, align 4
  %12 = alloca i32, align 4
  %13 = alloca i32, align 4
  store ptr %0, ptr %5, align 8, !tbaa !29
  store i32 %1, ptr %6, align 4, !tbaa !20
  store i32 %2, ptr %7, align 4, !tbaa !20
  store i32 %3, ptr %8, align 4, !tbaa !20
  call void @llvm.lifetime.start.p0(i64 8, ptr %9) #3
  %14 = load ptr, ptr %5, align 8, !tbaa !29
  store ptr %14, ptr %9, align 8, !tbaa !225
  call void @llvm.lifetime.start.p0(i64 8, ptr %10) #3
  %15 = load ptr, ptr %9, align 8, !tbaa !225
  %16 = load i32, ptr %6, align 4, !tbaa !20
  %17 = load i32, ptr %8, align 4, !tbaa !20
  %18 = sub nsw i32 %16, %17
  %19 = load i32, ptr %7, align 4, !tbaa !20
  %20 = mul nsw i32 %18, %19
  %21 = sext i32 %20 to i64
  %22 = getelementptr inbounds i16, ptr %15, i64 %21
  store ptr %22, ptr %10, align 8, !tbaa !225
  call void @llvm.lifetime.start.p0(i64 4, ptr %11) #3
  store i32 0, ptr %11, align 4, !tbaa !20
  br label %23

23:                                               ; preds = %72, %4
  %24 = load i32, ptr %11, align 4, !tbaa !20
  %25 = load i32, ptr %8, align 4, !tbaa !20
  %26 = icmp slt i32 %24, %25
  br i1 %26, label %28, label %27

27:                                               ; preds = %23
  store i32 2, ptr %12, align 4
  call void @llvm.lifetime.end.p0(i64 4, ptr %11) #3
  br label %75

28:                                               ; preds = %23
  call void @llvm.lifetime.start.p0(i64 4, ptr %13) #3
  store i32 0, ptr %13, align 4, !tbaa !20
  br label %29

29:                                               ; preds = %68, %28
  %30 = load i32, ptr %13, align 4, !tbaa !20
  %31 = load i32, ptr %7, align 4, !tbaa !20
  %32 = icmp slt i32 %30, %31
  br i1 %32, label %34, label %33

33:                                               ; preds = %29
  store i32 5, ptr %12, align 4
  call void @llvm.lifetime.end.p0(i64 4, ptr %13) #3
  br label %71

34:                                               ; preds = %29
  %35 = load ptr, ptr %9, align 8, !tbaa !225
  %36 = load i32, ptr %8, align 4, !tbaa !20
  %37 = load i32, ptr %7, align 4, !tbaa !20
  %38 = mul nsw i32 %36, %37
  %39 = load i32, ptr %13, align 4, !tbaa !20
  %40 = add nsw i32 %38, %39
  %41 = sext i32 %40 to i64
  %42 = getelementptr inbounds i16, ptr %35, i64 %41
  %43 = load i16, ptr %42, align 2, !tbaa !227
  %44 = load ptr, ptr %9, align 8, !tbaa !225
  %45 = load i32, ptr %11, align 4, !tbaa !20
  %46 = load i32, ptr %7, align 4, !tbaa !20
  %47 = mul nsw i32 %45, %46
  %48 = load i32, ptr %13, align 4, !tbaa !20
  %49 = add nsw i32 %47, %48
  %50 = sext i32 %49 to i64
  %51 = getelementptr inbounds i16, ptr %44, i64 %50
  store i16 %43, ptr %51, align 2, !tbaa !227
  %52 = load ptr, ptr %10, align 8, !tbaa !225
  %53 = load i32, ptr %7, align 4, !tbaa !20
  %54 = sub nsw i32 0, %53
  %55 = load i32, ptr %13, align 4, !tbaa !20
  %56 = add nsw i32 %54, %55
  %57 = sext i32 %56 to i64
  %58 = getelementptr inbounds i16, ptr %52, i64 %57
  %59 = load i16, ptr %58, align 2, !tbaa !227
  %60 = load ptr, ptr %10, align 8, !tbaa !225
  %61 = load i32, ptr %11, align 4, !tbaa !20
  %62 = load i32, ptr %7, align 4, !tbaa !20
  %63 = mul nsw i32 %61, %62
  %64 = load i32, ptr %13, align 4, !tbaa !20
  %65 = add nsw i32 %63, %64
  %66 = sext i32 %65 to i64
  %67 = getelementptr inbounds i16, ptr %60, i64 %66
  store i16 %59, ptr %67, align 2, !tbaa !227
  br label %68

68:                                               ; preds = %34
  %69 = load i32, ptr %13, align 4, !tbaa !20
  %70 = add nsw i32 %69, 1
  store i32 %70, ptr %13, align 4, !tbaa !20
  br label %29, !llvm.loop !490

71:                                               ; preds = %33
  br label %72

72:                                               ; preds = %71
  %73 = load i32, ptr %11, align 4, !tbaa !20
  %74 = add nsw i32 %73, 1
  store i32 %74, ptr %11, align 4, !tbaa !20
  br label %23, !llvm.loop !491

75:                                               ; preds = %27
  call void @llvm.lifetime.end.p0(i64 8, ptr %10) #3
  call void @llvm.lifetime.end.p0(i64 8, ptr %9) #3
  ret void
}